(dp0
Vdomain
p1
V.zhihu.com
p2
sVsecure
p3
I00
sVvalue
p4
V"AMDsVgY9Bg2PTonH9OC6u5Zcrq8y1QsvBO8=|1516536949"
p5
sVexpiry
p6
L9223372036854776000L
sVpath
p7
V/
p8
sVhttpOnly
p9
I01
sVname
p10
Vd_c0
p11
s.