(dp0
Vdomain
p1
V.zhihu.com
p2
sVsecure
p3
I00
sVvalue
p4
V"2|1:0|10:1516536950|14:capsion_ticket|44:MmQ4ZDcxYTI0Y2RlNGFlMzljOGRkYTVjY2RiMGJjZWU=|ce1dcdadad831accd4c64610dba8784f8670a23a47b971e645ac208dfe086866"
p5
sVexpiry
p6
I1519128950
sVpath
p7
V/
p8
sVhttpOnly
p9
I01
sVname
p10
Vcapsion_ticket
p11
s.