(dp0
Vdomain
p1
V.zhihu.com
p2
sVsecure
p3
I00
sVvalue
p4
V"2|1:0|10:1516584323|4:z_c0|92:Mi4xeHNMVEFnQUFBQUFBMEN4TnVfRUdEU1lBQUFCZ0FsVk5nNHRTV3dCQ0pJRzhwbl9LM3QtSmh2anlSdnB5aUN4WUtB|5808052bbccbeb9ee95286c63db1b5fd28ea3caac05131f9e8046562c951d8c6"
p5
sVexpiry
p6
I1532136323
sVpath
p7
V/
p8
sVhttpOnly
p9
I01
sVname
p10
Vz_c0
p11
s.