(dp0
Vdomain
p1
V.zhihu.com
p2
sVsecure
p3
I00
sVvalue
p4
Vfa947ad2df0442248e97c422e07d81d6|1516584321000|1516584321000
p5
sVexpiry
p6
I1611192321
sVpath
p7
V/
p8
sVhttpOnly
p9
I01
sVname
p10
Vq_c1
p11
s.