(dp0
Vdomain
p1
V.zhihu.com
p2
sVsecure
p3
I00
sVvalue
p4
Vb0f6aafc484e419995b77df49aaac77e|1516536949000|1516536949000
p5
sVexpiry
p6
I1611144949
sVpath
p7
V/
p8
sVhttpOnly
p9
I01
sVname
p10
Vq_c1
p11
s.