(dp0
Vdomain
p1
V.zhihu.com
p2
sVsecure
p3
I00
sVvalue
p4
V"ANAsTbvxBg2PTlr9XFml6cozz4cTsIyExfg=|1516584321"
p5
sVexpiry
p6
L9223372036854776000L
sVpath
p7
V/
p8
sVhttpOnly
p9
I01
sVname
p10
Vd_c0
p11
s.