(dp0
Vdomain
p1
V.zhihu.com
p2
sVsecure
p3
I00
sVvalue
p4
V"2|1:0|10:1516536951|4:z_c0|92:Mi4xeHNMVEFnQUFBQUFBd094V0JqMEdEU1lBQUFCZ0FsVk5kOUpSV3dDWjFfc0NiZ1NTMHd6Q1lHU2VSTExfT1NkcGZR|319ecb97ea5394ad5c2b9f3a434d7dcdc55af81cc249d8eac3a23f3dce6159e8"
p5
sVexpiry
p6
I1532088951
sVpath
p7
V/
p8
sVhttpOnly
p9
I01
sVname
p10
Vz_c0
p11
s.