(dp0
Vdomain
p1
V.zhihu.com
p2
sVsecure
p3
I00
sVvalue
p4
V"2|1:0|10:1516584322|14:capsion_ticket|44:MzA0YzBkOGQ5OGU0NGM3NGEwY2RlYWQ0M2EyZjRhMjk=|1250b4baba13e441090cf2d436ecfbf47b26c364c11b4bb16367231dcd4b3c15"
p5
sVexpiry
p6
I1519176322
sVpath
p7
V/
p8
sVhttpOnly
p9
I01
sVname
p10
Vcapsion_ticket
p11
s.